; Function Attrs: mustprogress uwtable
define void @_ZN2cv4gapi4sqrtERKNS_4GMatE(ptr dead_on_unwind noalias writable sret(%"class.cv::GMat") align 8 %0, ptr noundef nonnull readonly align 8 captures(none) dereferenceable(16) %1) local_unnamed_addr #3 personality ptr @__gxx_personality_v0 {
  %3 = alloca %"class.cv::GMat", align 8
  %4 = load ptr, ptr %1, align 8, !tbaa !3
  store ptr %4, ptr %3, align 8, !tbaa !3
  %5 = getelementptr inbounds nuw i8, ptr %3, i64 8
  %6 = getelementptr inbounds nuw i8, ptr %1, i64 8
  %7 = load ptr, ptr %6, align 8, !tbaa !11
  store ptr %7, ptr %5, align 8, !tbaa !11
  %.not.i.i.i.i = icmp eq ptr %7, null
  br i1 %.not.i.i.i.i, label %_ZN2cv4GMatC2ERKS0_.exit, label %8

8:                                                ; preds = %2
  %9 = getelementptr inbounds nuw i8, ptr %7, i64 8
  %10 = load i8, ptr @__libc_single_threaded, align 1, !tbaa !12
  %.not.i.i.i.i.i = icmp eq i8 %10, 0
  br i1 %.not.i.i.i.i.i, label %14, label %11

11:                                               ; preds = %8
  %12 = load i32, ptr %9, align 4, !tbaa !13
  %13 = add nsw i32 %12, 1
  store i32 %13, ptr %9, align 4, !tbaa !13
  br label %_ZN2cv4GMatC2ERKS0_.exit

14:                                               ; preds = %8
  %15 = atomicrmw volatile add ptr %9, i32 1 acq_rel, align 4
  br label %_ZN2cv4GMatC2ERKS0_.exit

_ZN2cv4GMatC2ERKS0_.exit:                         ; preds = %2, %11, %14
  invoke void @_ZN2cv11GKernelTypeINS_4gapi4core5GSqrtESt8functionIFNS_4GMatES5_EEE2onES5_(ptr dead_on_unwind writable sret(%"class.cv::GMat") align 8 %0, ptr noundef nonnull %3)
          to label %16 unwind label %39

16:                                               ; preds = %_ZN2cv4GMatC2ERKS0_.exit
  %17 = load ptr, ptr %5, align 8, !tbaa !11
  %.not.i.i.i = icmp eq ptr %17, null
  br i1 %.not.i.i.i, label %_ZN2cv4GMatD2Ev.exit, label %18

18:                                               ; preds = %16
  %19 = getelementptr inbounds nuw i8, ptr %17, i64 8
  %20 = load atomic i64, ptr %19 acquire, align 8
  %21 = icmp eq i64 %20, 4294967297
  %22 = trunc i64 %20 to i32
  br i1 %21, label %23, label %31

23:                                               ; preds = %18
  store i32 0, ptr %19, align 8, !tbaa !15
  %24 = getelementptr inbounds nuw i8, ptr %17, i64 12
  store i32 0, ptr %24, align 4, !tbaa !17
  %25 = load ptr, ptr %17, align 8, !tbaa !18
  %26 = getelementptr inbounds nuw i8, ptr %25, i64 16
  %27 = load ptr, ptr %26, align 8
  call void %27(ptr noundef nonnull align 8 dereferenceable(16) %17) #23
  %28 = load ptr, ptr %17, align 8, !tbaa !18
  %29 = getelementptr inbounds nuw i8, ptr %28, i64 24
  %30 = load ptr, ptr %29, align 8
  call void %30(ptr noundef nonnull align 8 dereferenceable(16) %17) #23
  br label %_ZN2cv4GMatD2Ev.exit

31:                                               ; preds = %18
  %32 = load i8, ptr @__libc_single_threaded, align 1, !tbaa !12
  %.not.i.i.i.i2 = icmp eq i8 %32, 0
  br i1 %.not.i.i.i.i2, label %35, label %33

33:                                               ; preds = %31
  %34 = add nsw i32 %22, -1
  store i32 %34, ptr %19, align 4, !tbaa !13
  br label %_ZN9__gnu_cxx27__exchange_and_add_dispatchEPii.exit.i.i.i.i

35:                                               ; preds = %31
  %36 = atomicrmw volatile add ptr %19, i32 -1 acq_rel, align 4
  br label %_ZN9__gnu_cxx27__exchange_and_add_dispatchEPii.exit.i.i.i.i

_ZN9__gnu_cxx27__exchange_and_add_dispatchEPii.exit.i.i.i.i: ; preds = %35, %33
  %.0.i.i.i.i.i = phi i32 [ %22, %33 ], [ %36, %35 ]
  %37 = icmp eq i32 %.0.i.i.i.i.i, 1
  br i1 %37, label %38, label %_ZN2cv4GMatD2Ev.exit, !prof !20

38:                                               ; preds = %_ZN9__gnu_cxx27__exchange_and_add_dispatchEPii.exit.i.i.i.i
  call void @_ZNSt16_Sp_counted_baseILN9__gnu_cxx12_Lock_policyE2EE24_M_release_last_use_coldEv(ptr noundef nonnull align 8 dereferenceable(16) %17) #23
  br label %_ZN2cv4GMatD2Ev.exit

_ZN2cv4GMatD2Ev.exit:                             ; preds = %16, %23, %_ZN9__gnu_cxx27__exchange_and_add_dispatchEPii.exit.i.i.i.i, %38
  ret void

39:                                               ; preds = %_ZN2cv4GMatC2ERKS0_.exit
  %40 = landingpad { ptr, i32 }
          cleanup
  call void @_ZN2cv4GMatD2Ev(ptr noundef nonnull align 8 dereferenceable(16) %3) #23
  resume { ptr, i32 } %40
}